; Function Attrs: mustprogress uwtable
define hidden ptr @_ZN19OpenColorIO_v2_5dev10OpRcPtrVec5eraseEN9__gnu_cxx17__normal_iteratorIPKSt10shared_ptrINS_2OpEESt6vectorIS5_SaIS5_EEEESB_(ptr noundef nonnull align 8 dereferenceable(144) %0, ptr %1, ptr %2) local_unnamed_addr #6 align 2 {
  %4 = load ptr, ptr %0, align 8, !tbaa !202
  %5 = ptrtoint ptr %1 to i64
  %6 = ptrtoint ptr %4 to i64
  %7 = sub i64 %5, %6
  %8 = getelementptr inbounds i8, ptr %4, i64 %7
  %9 = ptrtoint ptr %2 to i64
  %10 = sub i64 %9, %6
  %11 = getelementptr inbounds i8, ptr %4, i64 %10
  %12 = tail call ptr @_ZNSt6vectorISt10shared_ptrIN19OpenColorIO_v2_5dev2OpEESaIS3_EE8_M_eraseEN9__gnu_cxx17__normal_iteratorIPS3_S5_EES9_(ptr noundef nonnull align 8 dereferenceable(24) %0, ptr %8, ptr %11)
  ret ptr %12
}